target datalayout = "e-m:e-p270:32:32-p271:32:32-p272:64:64-i64:64-i128:128-f80:128-n8:16:32:64-S128"
target triple = "x86_64-pc-linux-gnu"

%"class.clang::StmtIteratorBase" = type { %union.anon, i64, ptr }
%union.anon = type { ptr }

; Function Attrs: mustprogress nounwind uwtable
define dso_local void @_ZN5clang16StmtIteratorBase8NextDeclEb(ptr noundef nonnull align 8 dereferenceable(24) %0, i1 noundef zeroext %1) #0 align 2 {
  %3 = alloca ptr, align 8
  %4 = alloca i8, align 1
  store ptr %0, ptr %3, align 8
  %5 = zext i1 %1 to i8
  store i8 %5, ptr %4, align 1
  %6 = load ptr, ptr %3, align 8
  %7 = load i8, ptr %4, align 1
  %8 = trunc i8 %7 to i1
  br i1 %8, label %9, label %13

9:                                                ; preds = %2
  %10 = getelementptr inbounds nuw %"class.clang::StmtIteratorBase", ptr %6, i32 0, i32 0
  %11 = load ptr, ptr %10, align 8
  %12 = getelementptr inbounds ptr, ptr %11, i32 1
  store ptr %12, ptr %10, align 8
  br label %13

13:                                               ; preds = %9, %2
  br label %14

14:                                               ; preds = %27, %13
  %15 = getelementptr inbounds nuw %"class.clang::StmtIteratorBase", ptr %6, i32 0, i32 0
  %16 = load ptr, ptr %15, align 8
  %17 = getelementptr inbounds nuw %"class.clang::StmtIteratorBase", ptr %6, i32 0, i32 2
  %18 = load ptr, ptr %17, align 8
  %19 = icmp ne ptr %16, %18
  br i1 %19, label %20, label %31

20:                                               ; preds = %14
  %21 = getelementptr inbounds nuw %"class.clang::StmtIteratorBase", ptr %6, i32 0, i32 0
  %22 = load ptr, ptr %21, align 8
  %23 = load ptr, ptr %22, align 8
  %24 = call noundef zeroext i1 @_ZN5clang16StmtIteratorBase10HandleDeclEPNS_4DeclE(ptr noundef nonnull align 8 dereferenceable(24) %6, ptr noundef %23)
  br i1 %24, label %25, label %26

25:                                               ; preds = %20
  br label %33

26:                                               ; preds = %20
  br label %27

27:                                               ; preds = %26
  %28 = getelementptr inbounds nuw %"class.clang::StmtIteratorBase", ptr %6, i32 0, i32 0
  %29 = load ptr, ptr %28, align 8
  %30 = getelementptr inbounds ptr, ptr %29, i32 1
  store ptr %30, ptr %28, align 8
  br label %14, !llvm.loop !6

31:                                               ; preds = %14
  %32 = getelementptr inbounds nuw %"class.clang::StmtIteratorBase", ptr %6, i32 0, i32 1
  store i64 0, ptr %32, align 8
  br label %33

33:                                               ; preds = %31, %25
  ret void
}