; Function Attrs: mustprogress nounwind uwtable
define dso_local void @_ZN5clang16StmtIteratorBase8NextDeclEb(ptr nocapture noundef nonnull align 8 dereferenceable(24) %0, i1 noundef zeroext %1) local_unnamed_addr #0 align 2 {
  %.pre = load ptr, ptr %0, align 8
  br i1 %1, label %3, label %5

3:                                                ; preds = %2
  %4 = getelementptr inbounds i8, ptr %.pre, i64 8
  store ptr %4, ptr %0, align 8
  br label %5

5:                                                ; preds = %3, %2
  %6 = phi ptr [ %4, %3 ], [ %.pre, %2 ]
  %7 = getelementptr inbounds nuw i8, ptr %0, i64 16
  %8 = load ptr, ptr %7, align 8
  %.not1 = icmp eq ptr %6, %8
  br i1 %.not1, label %._crit_edge, label %.lr.ph

.lr.ph:                                           ; preds = %5, %12
  %9 = phi ptr [ %14, %12 ], [ %6, %5 ]
  %10 = load ptr, ptr %9, align 8
  %11 = tail call noundef zeroext i1 @_ZN5clang16StmtIteratorBase10HandleDeclEPNS_4DeclE(ptr noundef nonnull align 8 dereferenceable(24) %0, ptr noundef %10)
  br i1 %11, label %.loopexit, label %12

12:                                               ; preds = %.lr.ph
  %13 = load ptr, ptr %0, align 8
  %14 = getelementptr inbounds i8, ptr %13, i64 8
  store ptr %14, ptr %0, align 8
  %15 = load ptr, ptr %7, align 8
  %.not = icmp eq ptr %14, %15
  br i1 %.not, label %._crit_edge, label %.lr.ph, !llvm.loop !6

._crit_edge:                                      ; preds = %12, %5
  %16 = getelementptr inbounds nuw i8, ptr %0, i64 8
  store i64 0, ptr %16, align 8
  br label %.loopexit

.loopexit:                                        ; preds = %.lr.ph, %._crit_edge
  ret void
}